target datalayout = "e-m:e-p270:32:32-p271:32:32-p272:64:64-i64:64-i128:128-f80:128-n8:16:32:64-S128"
target triple = "x86_64-pc-linux-gnu"

%"class.google::protobuf::internal::RepeatedPtrFieldBase" = type { ptr, i32, i32, ptr }

; Function Attrs: mustprogress uwtable
define void @_ZN6google8protobuf8internal20RepeatedPtrFieldBase7ReserveEi(ptr noundef nonnull align 8 dereferenceable(24) %0, i32 noundef %1) #7 align 2 {
  %3 = alloca ptr, align 8
  %4 = alloca i32, align 4
  store ptr %0, ptr %3, align 8, !tbaa !338
  store i32 %1, ptr %4, align 4, !tbaa !15
  %5 = load ptr, ptr %3, align 8
  %6 = load i32, ptr %4, align 4, !tbaa !15
  %7 = getelementptr inbounds nuw %"class.google::protobuf::internal::RepeatedPtrFieldBase", ptr %5, i32 0, i32 1
  %8 = load i32, ptr %7, align 8, !tbaa !343
  %9 = icmp sgt i32 %6, %8
  br i1 %9, label %10, label %16

10:                                               ; preds = %2
  %11 = load i32, ptr %4, align 4, !tbaa !15
  %12 = getelementptr inbounds nuw %"class.google::protobuf::internal::RepeatedPtrFieldBase", ptr %5, i32 0, i32 1
  %13 = load i32, ptr %12, align 8, !tbaa !343
  %14 = sub nsw i32 %11, %13
  %15 = call noundef ptr @_ZN6google8protobuf8internal20RepeatedPtrFieldBase14InternalExtendEi(ptr noundef nonnull align 8 dereferenceable(24) %5, i32 noundef %14)
  br label %16

16:                                               ; preds = %10, %2
  ret void
}