; Function Attrs: mustprogress uwtable
define void @_ZN6google8protobuf8internal20RepeatedPtrFieldBase7ReserveEi(ptr noundef nonnull align 8 captures(none) dereferenceable(24) %0, i32 noundef %1) local_unnamed_addr #6 align 2 {
  %3 = getelementptr inbounds nuw i8, ptr %0, i64 8
  %4 = load i32, ptr %3, align 8, !tbaa !134
  %5 = icmp sgt i32 %1, %4
  br i1 %5, label %6, label %9

6:                                                ; preds = %2
  %7 = sub nsw i32 %1, %4
  %8 = tail call noundef ptr @_ZN6google8protobuf8internal20RepeatedPtrFieldBase14InternalExtendEi(ptr noundef nonnull align 8 dereferenceable(24) %0, i32 noundef %7)
  br label %9

9:                                                ; preds = %6, %2
  ret void
}